target datalayout = "e-m:e-p270:32:32-p271:32:32-p272:64:64-i64:64-i128:128-f80:128-n8:16:32:64-S128"
target triple = "x86_64-pc-linux-gnu"

%struct.external_diff = type { ptr, i8 }
%struct.userdiff_funcname = type { ptr, ptr, i32 }
%struct.userdiff_driver = type { ptr, %struct.external_diff, ptr, ptr, i32, %struct.userdiff_funcname, ptr, ptr, ptr, ptr, ptr, ptr, i32 }

@ndrivers = internal global i32 0, align 4
@drivers = internal global ptr null, align 8

; Function Attrs: nounwind uwtable
define internal i32 @for_each_userdiff_driver_list(ptr noundef %0, i32 noundef %1, ptr noundef %2, ptr noundef %3, i32 noundef %4) #0 {
  %6 = alloca i32, align 4
  %7 = alloca ptr, align 8
  %8 = alloca i32, align 4
  %9 = alloca ptr, align 8
  %10 = alloca ptr, align 8
  %11 = alloca i32, align 4
  %12 = alloca i32, align 4
  %13 = alloca i32, align 4
  %14 = alloca ptr, align 8
  %15 = alloca i32, align 4
  store ptr %0, ptr %7, align 8, !tbaa !62
  store i32 %1, ptr %8, align 4, !tbaa !13
  store ptr %2, ptr %9, align 8, !tbaa !62
  store ptr %3, ptr %10, align 8, !tbaa !11
  store i32 %4, ptr %11, align 4, !tbaa !13
  call void @llvm.lifetime.start.p0(i64 4, ptr %12) #9
  call void @llvm.lifetime.start.p0(i64 4, ptr %13) #9
  store i32 0, ptr %12, align 4, !tbaa !13
  br label %16

16:                                               ; preds = %37, %5
  %17 = load i32, ptr %12, align 4, !tbaa !13
  %18 = load i32, ptr %11, align 4, !tbaa !13
  %19 = icmp slt i32 %17, %18
  br i1 %19, label %20, label %40

20:                                               ; preds = %16
  call void @llvm.lifetime.start.p0(i64 8, ptr %14) #9
  %21 = load ptr, ptr %10, align 8, !tbaa !11
  %22 = load i32, ptr %12, align 4, !tbaa !13
  %23 = sext i32 %22 to i64
  %24 = getelementptr inbounds %struct.userdiff_driver, ptr %21, i64 %23
  store ptr %24, ptr %14, align 8, !tbaa !11
  %25 = load ptr, ptr %7, align 8, !tbaa !62
  %26 = load ptr, ptr %14, align 8, !tbaa !11
  %27 = load i32, ptr %8, align 4, !tbaa !13
  %28 = load ptr, ptr %9, align 8, !tbaa !62
  %29 = call i32 %25(ptr noundef %26, i32 noundef %27, ptr noundef %28)
  store i32 %29, ptr %13, align 4, !tbaa !13
  %30 = icmp ne i32 %29, 0
  br i1 %30, label %31, label %33

31:                                               ; preds = %20
  %32 = load i32, ptr %13, align 4, !tbaa !13
  store i32 %32, ptr %6, align 4
  store i32 1, ptr %15, align 4
  br label %34

33:                                               ; preds = %20
  store i32 0, ptr %15, align 4
  br label %34

34:                                               ; preds = %33, %31
  call void @llvm.lifetime.end.p0(i64 8, ptr %14) #9
  %35 = load i32, ptr %15, align 4
  switch i32 %35, label %41 [
    i32 0, label %36
  ]

36:                                               ; preds = %34
  br label %37

37:                                               ; preds = %36
  %38 = load i32, ptr %12, align 4, !tbaa !13
  %39 = add nsw i32 %38, 1
  store i32 %39, ptr %12, align 4, !tbaa !13
  br label %16, !llvm.loop !63

40:                                               ; preds = %16
  store i32 0, ptr %6, align 4
  store i32 1, ptr %15, align 4
  br label %41

41:                                               ; preds = %40, %34
  call void @llvm.lifetime.end.p0(i64 4, ptr %13) #9
  call void @llvm.lifetime.end.p0(i64 4, ptr %12) #9
  %42 = load i32, ptr %6, align 4
  ret i32 %42
}

; Function Attrs: nounwind uwtable
define dso_local i32 @for_each_userdiff_driver(ptr noundef %0, ptr noundef %1) #0 {
  %3 = alloca i32, align 4
  %4 = alloca ptr, align 8
  %5 = alloca ptr, align 8
  %6 = alloca i32, align 4
  %7 = alloca i32, align 4
  store ptr %0, ptr %4, align 8, !tbaa !62
  store ptr %1, ptr %5, align 8, !tbaa !62
  call void @llvm.lifetime.start.p0(i64 4, ptr %6) #9
  %8 = load ptr, ptr %4, align 8, !tbaa !62
  %9 = load ptr, ptr %5, align 8, !tbaa !62
  %10 = load ptr, ptr @drivers, align 8, !tbaa !11
  %11 = load i32, ptr @ndrivers, align 4, !tbaa !13
  %12 = call i32 @for_each_userdiff_driver_list(ptr noundef %8, i32 noundef 2, ptr noundef %9, ptr noundef %10, i32 noundef %11)
  store i32 %12, ptr %6, align 4, !tbaa !13
  %13 = load i32, ptr %6, align 4, !tbaa !13
  %14 = icmp ne i32 %13, 0
  br i1 %14, label %15, label %17

15:                                               ; preds = %2
  %16 = load i32, ptr %6, align 4, !tbaa !13
  store i32 %16, ptr %3, align 4
  store i32 1, ptr %7, align 4
  br label %26

17:                                               ; preds = %2
  %18 = load ptr, ptr %4, align 8, !tbaa !62
  %19 = load ptr, ptr %5, align 8, !tbaa !62
  %20 = call i32 @for_each_userdiff_driver_list(ptr noundef %18, i32 noundef 1, ptr noundef %19, ptr noundef @builtin_drivers, i32 noundef 26)
  store i32 %20, ptr %6, align 4, !tbaa !13
  %21 = load i32, ptr %6, align 4, !tbaa !13
  %22 = icmp ne i32 %21, 0
  br i1 %22, label %23, label %25

23:                                               ; preds = %17
  %24 = load i32, ptr %6, align 4, !tbaa !13
  store i32 %24, ptr %3, align 4
  store i32 1, ptr %7, align 4
  br label %26

25:                                               ; preds = %17
  store i32 0, ptr %3, align 4
  store i32 1, ptr %7, align 4
  br label %26

26:                                               ; preds = %25, %23, %15
  call void @llvm.lifetime.end.p0(i64 4, ptr %6) #9
  %27 = load i32, ptr %3, align 4
  ret i32 %27
}