; Function Attrs: nounwind uwtable
define dso_local i32 @for_each_userdiff_driver(ptr noundef readonly captures(none) %0, ptr noundef %1) local_unnamed_addr #0 {
  %3 = load ptr, ptr @drivers, align 8, !tbaa !8
  %4 = load i32, ptr @ndrivers, align 4, !tbaa !11
  %5 = icmp sgt i32 %4, 0
  br i1 %5, label %.lr.ph.preheader.i, label %.lr.ph.i12.preheader

.lr.ph.i12.preheader:                             ; preds = %6, %2
  br label %.lr.ph.i12

.lr.ph.preheader.i:                               ; preds = %2
  %wide.trip.count.i = zext nneg i32 %4 to i64
  br label %.lr.ph.i

6:                                                ; preds = %.lr.ph.i
  %indvars.iv.next.i = add nuw nsw i64 %indvars.iv.i, 1
  %exitcond.not.i = icmp eq i64 %indvars.iv.next.i, %wide.trip.count.i
  br i1 %exitcond.not.i, label %.lr.ph.i12.preheader, label %.lr.ph.i, !llvm.loop !13

.lr.ph.i:                                         ; preds = %6, %.lr.ph.preheader.i
  %indvars.iv.i = phi i64 [ 0, %.lr.ph.preheader.i ], [ %indvars.iv.next.i, %6 ]
  %7 = getelementptr inbounds nuw %struct.userdiff_driver, ptr %3, i64 %indvars.iv.i
  %8 = tail call i32 %0(ptr noundef %7, i32 noundef 2, ptr noundef %1) #9
  %.not.i = icmp eq i32 %8, 0
  br i1 %.not.i, label %6, label %for_each_userdiff_driver_list.exit

.lr.ph.i12:                                       ; preds = %.lr.ph.i12.preheader, %.lr.ph.i12
  %indvars.iv.i13 = phi i64 [ %indvars.iv.next.i16, %.lr.ph.i12 ], [ 0, %.lr.ph.i12.preheader ]
  %9 = getelementptr inbounds nuw %struct.userdiff_driver, ptr @builtin_drivers, i64 %indvars.iv.i13
  %10 = tail call i32 %0(ptr noundef nonnull %9, i32 noundef 1, ptr noundef %1) #9
  %.not.i14 = icmp ne i32 %10, 0
  %indvars.iv.next.i16 = add nuw nsw i64 %indvars.iv.i13, 1
  %exitcond.not.i17 = icmp eq i64 %indvars.iv.next.i16, 26
  %or.cond = select i1 %.not.i14, i1 true, i1 %exitcond.not.i17
  br i1 %or.cond, label %for_each_userdiff_driver_list.exit, label %.lr.ph.i12, !llvm.loop !13

for_each_userdiff_driver_list.exit:               ; preds = %.lr.ph.i, %.lr.ph.i12
  %.0 = phi i32 [ %10, %.lr.ph.i12 ], [ %8, %.lr.ph.i ]
  ret i32 %.0
}